; Function Attrs: inlinehint nounwind uwtable
define internal fastcc range(i32 -32, 1) i32 @pmix_bfrops_base_tma_copy_ndstats(ptr noundef nonnull writeonly captures(none) %0, ptr noundef readonly captures(none) %1, ptr noundef %2) unnamed_addr #4 {
  %.not.i.i = icmp eq ptr %2, null
  br i1 %.not.i.i, label %7, label %4

4:                                                ; preds = %3
  %5 = load ptr, ptr %2, align 8, !tbaa !39
  %6 = tail call ptr %5(ptr noundef nonnull %2, i64 noundef 104) #17
  br label %pmix_tma_malloc.exit.i

7:                                                ; preds = %3
  %8 = tail call noalias dereferenceable_or_null(104) ptr @malloc(i64 noundef 104) #18
  br label %pmix_tma_malloc.exit.i

pmix_tma_malloc.exit.i:                           ; preds = %7, %4
  %.0.i.i = phi ptr [ %6, %4 ], [ %8, %7 ]
  %.not.i = icmp eq ptr %.0.i.i, null
  br i1 %.not.i, label %pmix_bfrops_base_tma_node_stats_create.exit.thread, label %9, !prof !29

9:                                                ; preds = %pmix_tma_malloc.exit.i
  tail call void @llvm.memset.p0.i64(ptr noundef nonnull align 8 dereferenceable(104) %.0.i.i, i8 0, i64 104, i1 false)
  store ptr %.0.i.i, ptr %0, align 8, !tbaa !62
  tail call fastcc void @pmix_bfrops_base_tma_populate_ndstats(ptr noundef %.0.i.i, ptr noundef %1, ptr noundef %2)
  br label %pmix_bfrops_base_tma_node_stats_create.exit.thread

pmix_bfrops_base_tma_node_stats_create.exit.thread: ; preds = %pmix_tma_malloc.exit.i, %9
  %.0 = phi i32 [ 0, %9 ], [ -32, %pmix_tma_malloc.exit.i ]
  ret i32 %.0
}